target datalayout = "e-m:e-p270:32:32-p271:32:32-p272:64:64-i64:64-i128:128-f80:128-n8:16:32:64-S128"
target triple = "x86_64-pc-linux-gnu"

%struct.redisOptions = type { i32, i32, ptr, ptr, %union.anon, ptr, ptr, ptr, ptr }
%union.anon = type { %struct.anon.1 }
%struct.anon.1 = type { ptr, ptr, i32 }

; Function Attrs: nounwind uwtable
define ptr @redisConnectUnixNonBlock(ptr noundef %0) #0 {
  %2 = alloca ptr, align 8
  %3 = alloca %struct.redisOptions, align 8
  store ptr %0, ptr %2, align 8, !tbaa !26
  call void @llvm.lifetime.start.p0(i64 80, ptr %3) #10
  call void @llvm.memset.p0.i64(ptr align 8 %3, i8 0, i64 80, i1 false)
  br label %4

4:                                                ; preds = %1
  %5 = getelementptr inbounds nuw %struct.redisOptions, ptr %3, i32 0, i32 0
  store i32 1, ptr %5, align 8, !tbaa !76
  %6 = load ptr, ptr %2, align 8, !tbaa !26
  %7 = getelementptr inbounds nuw %struct.redisOptions, ptr %3, i32 0, i32 4
  store ptr %6, ptr %7, align 8, !tbaa !30
  br label %8

8:                                                ; preds = %4
  br label %9

9:                                                ; preds = %8
  %10 = getelementptr inbounds nuw %struct.redisOptions, ptr %3, i32 0, i32 1
  %11 = load i32, ptr %10, align 4, !tbaa !69
  %12 = or i32 %11, 1
  store i32 %12, ptr %10, align 4, !tbaa !69
  %13 = call ptr @redisConnectWithOptions(ptr noundef %3)
  call void @llvm.lifetime.end.p0(i64 80, ptr %3) #10
  ret ptr %13
}